target datalayout = "e-m:e-p270:32:32-p271:32:32-p272:64:64-i64:64-i128:128-f80:128-n8:16:32:64-S128"
target triple = "x86_64-pc-linux-gnu"

%"class.google::protobuf::RepeatedField.0" = type { i32, i32, ptr }

; Function Attrs: mustprogress nounwind uwtable
define available_externally noundef ptr @_ZNK6google8protobuf13RepeatedFieldIjE15unsafe_elementsEv(ptr noundef nonnull align 8 dereferenceable(16) %0) #8 align 2 {
  %2 = alloca ptr, align 8
  store ptr %0, ptr %2, align 8, !tbaa !87
  %3 = load ptr, ptr %2, align 8
  %4 = getelementptr inbounds nuw %"class.google::protobuf::RepeatedField.0", ptr %3, i32 0, i32 2
  %5 = load ptr, ptr %4, align 8, !tbaa !130
  ret ptr %5
}

; Function Attrs: mustprogress nounwind uwtable
define internal noundef i64 @_ZN6google8protobuf8internalL10VarintSizeILb0ELb0EjEEmPKT1_i(ptr noundef %0, i32 noundef %1) #8 {
  %3 = alloca ptr, align 8
  %4 = alloca i32, align 4
  %5 = alloca i32, align 4
  %6 = alloca i32, align 4
  %7 = alloca i32, align 4
  %8 = alloca i32, align 4
  store ptr %0, ptr %3, align 8, !tbaa !28
  store i32 %1, ptr %4, align 4, !tbaa !8
  call void @llvm.lifetime.start.p0(i64 4, ptr %5) #3
  %9 = load i32, ptr %4, align 4, !tbaa !8
  store i32 %9, ptr %5, align 4, !tbaa !8
  call void @llvm.lifetime.start.p0(i64 4, ptr %6) #3
  store i32 0, ptr %6, align 4, !tbaa !8
  call void @llvm.lifetime.start.p0(i64 4, ptr %7) #3
  store i32 0, ptr %7, align 4, !tbaa !8
  br label %10

10:                                               ; preds = %45, %2
  %11 = load i32, ptr %7, align 4, !tbaa !8
  %12 = load i32, ptr %4, align 4, !tbaa !8
  %13 = icmp slt i32 %11, %12
  br i1 %13, label %15, label %14

14:                                               ; preds = %10
  call void @llvm.lifetime.end.p0(i64 4, ptr %7) #3
  br label %48

15:                                               ; preds = %10
  call void @llvm.lifetime.start.p0(i64 4, ptr %8) #3
  %16 = load ptr, ptr %3, align 8, !tbaa !28
  %17 = load i32, ptr %7, align 4, !tbaa !8
  %18 = sext i32 %17 to i64
  %19 = getelementptr inbounds i32, ptr %16, i64 %18
  %20 = load i32, ptr %19, align 4, !tbaa !8
  store i32 %20, ptr %8, align 4, !tbaa !8
  %21 = load i32, ptr %8, align 4, !tbaa !8
  %22 = icmp ugt i32 %21, 127
  br i1 %22, label %23, label %26

23:                                               ; preds = %15
  %24 = load i32, ptr %5, align 4, !tbaa !8
  %25 = add i32 %24, 1
  store i32 %25, ptr %5, align 4, !tbaa !8
  br label %26

26:                                               ; preds = %23, %15
  %27 = load i32, ptr %8, align 4, !tbaa !8
  %28 = icmp ugt i32 %27, 16383
  br i1 %28, label %29, label %32

29:                                               ; preds = %26
  %30 = load i32, ptr %5, align 4, !tbaa !8
  %31 = add i32 %30, 1
  store i32 %31, ptr %5, align 4, !tbaa !8
  br label %32

32:                                               ; preds = %29, %26
  %33 = load i32, ptr %8, align 4, !tbaa !8
  %34 = icmp ugt i32 %33, 2097151
  br i1 %34, label %35, label %38

35:                                               ; preds = %32
  %36 = load i32, ptr %5, align 4, !tbaa !8
  %37 = add i32 %36, 1
  store i32 %37, ptr %5, align 4, !tbaa !8
  br label %38

38:                                               ; preds = %35, %32
  %39 = load i32, ptr %8, align 4, !tbaa !8
  %40 = icmp ugt i32 %39, 268435455
  br i1 %40, label %41, label %44

41:                                               ; preds = %38
  %42 = load i32, ptr %5, align 4, !tbaa !8
  %43 = add i32 %42, 1
  store i32 %43, ptr %5, align 4, !tbaa !8
  br label %44

44:                                               ; preds = %41, %38
  call void @llvm.lifetime.end.p0(i64 4, ptr %8) #3
  br label %45

45:                                               ; preds = %44
  %46 = load i32, ptr %7, align 4, !tbaa !8
  %47 = add nsw i32 %46, 1
  store i32 %47, ptr %7, align 4, !tbaa !8
  br label %10, !llvm.loop !89

48:                                               ; preds = %14
  %49 = load i32, ptr %5, align 4, !tbaa !8
  %50 = zext i32 %49 to i64
  call void @llvm.lifetime.end.p0(i64 4, ptr %6) #3
  call void @llvm.lifetime.end.p0(i64 4, ptr %5) #3
  ret i64 %50
}

; Function Attrs: inlinehint mustprogress nounwind uwtable
define available_externally noundef i32 @_ZNK6google8protobuf13RepeatedFieldIjE4sizeEv(ptr noundef nonnull align 8 dereferenceable(16) %0) #5 align 2 {
  %2 = alloca ptr, align 8
  store ptr %0, ptr %2, align 8, !tbaa !87
  %3 = load ptr, ptr %2, align 8
  %4 = getelementptr inbounds nuw %"class.google::protobuf::RepeatedField.0", ptr %3, i32 0, i32 0
  %5 = load i32, ptr %4, align 8, !tbaa !90
  ret i32 %5
}

; Function Attrs: inlinehint mustprogress uwtable
define available_externally noundef ptr @_ZNK6google8protobuf13RepeatedFieldIjE4dataEv(ptr noundef nonnull align 8 dereferenceable(16) %0) #7 align 2 {
  %2 = alloca ptr, align 8
  store ptr %0, ptr %2, align 8, !tbaa !87
  %3 = load ptr, ptr %2, align 8
  %4 = call noundef ptr @_ZNK6google8protobuf13RepeatedFieldIjE15unsafe_elementsEv(ptr noundef nonnull align 8 dereferenceable(16) %3)
  ret ptr %4
}

; Function Attrs: mustprogress uwtable
define hidden noundef i64 @_ZN6google8protobuf8internal14WireFormatLite10UInt32SizeERKNS0_13RepeatedFieldIjEE(ptr noundef nonnull align 8 dereferenceable(16) %0) #4 align 2 {
  %2 = alloca ptr, align 8
  store ptr %0, ptr %2, align 8, !tbaa !87
  %3 = load ptr, ptr %2, align 8, !tbaa !87
  %4 = call noundef ptr @_ZNK6google8protobuf13RepeatedFieldIjE4dataEv(ptr noundef nonnull align 8 dereferenceable(16) %3)
  %5 = load ptr, ptr %2, align 8, !tbaa !87
  %6 = call noundef i32 @_ZNK6google8protobuf13RepeatedFieldIjE4sizeEv(ptr noundef nonnull align 8 dereferenceable(16) %5)
  %7 = call noundef i64 @_ZN6google8protobuf8internalL10VarintSizeILb0ELb0EjEEmPKT1_i(ptr noundef %4, i32 noundef %6)
  ret i64 %7
}