; Function Attrs: mustprogress nofree norecurse nosync nounwind willreturn memory(read, inaccessiblemem: none) uwtable
define hidden noundef range(i64 0, 4294967296) i64 @_ZN6google8protobuf8internal14WireFormatLite10UInt32SizeERKNS0_13RepeatedFieldIjEE(ptr noundef nonnull readonly align 8 captures(none) dereferenceable(16) %0) local_unnamed_addr #7 align 2 {
  %2 = getelementptr inbounds nuw i8, ptr %0, i64 8
  %3 = load ptr, ptr %2, align 8, !tbaa !53
  %4 = load i32, ptr %0, align 8, !tbaa !55
  %5 = icmp sgt i32 %4, 0
  br i1 %5, label %.lr.ph.preheader.i, label %_ZN6google8protobuf8internalL10VarintSizeILb0ELb0EjEEmPKT1_i.exit

.lr.ph.preheader.i:                               ; preds = %1
  %wide.trip.count.i = zext nneg i32 %4 to i64
  br label %.lr.ph.i

.lr.ph.i:                                         ; preds = %.lr.ph.i, %.lr.ph.preheader.i
  %indvars.iv.i = phi i64 [ 0, %.lr.ph.preheader.i ], [ %indvars.iv.next.i, %.lr.ph.i ]
  %.016.i = phi i32 [ %4, %.lr.ph.preheader.i ], [ %.4.i, %.lr.ph.i ]
  %6 = getelementptr inbounds nuw i32, ptr %3, i64 %indvars.iv.i
  %7 = load i32, ptr %6, align 4, !tbaa !36
  %8 = icmp ugt i32 %7, 127
  %9 = zext i1 %8 to i32
  %spec.select.i = add i32 %.016.i, %9
  %10 = icmp ugt i32 %7, 16383
  %11 = zext i1 %10 to i32
  %.2.i = add i32 %spec.select.i, %11
  %12 = icmp ugt i32 %7, 2097151
  %13 = zext i1 %12 to i32
  %.3.i = add i32 %.2.i, %13
  %14 = icmp ugt i32 %7, 268435455
  %15 = zext i1 %14 to i32
  %.4.i = add i32 %.3.i, %15
  %indvars.iv.next.i = add nuw nsw i64 %indvars.iv.i, 1
  %exitcond.not.i = icmp eq i64 %indvars.iv.next.i, %wide.trip.count.i
  br i1 %exitcond.not.i, label %_ZN6google8protobuf8internalL10VarintSizeILb0ELb0EjEEmPKT1_i.exit, label %.lr.ph.i, !llvm.loop !56

_ZN6google8protobuf8internalL10VarintSizeILb0ELb0EjEEmPKT1_i.exit: ; preds = %.lr.ph.i, %1
  %.0.lcssa.i = phi i32 [ %4, %1 ], [ %.4.i, %.lr.ph.i ]
  %16 = zext i32 %.0.lcssa.i to i64
  ret i64 %16
}